; Function Attrs: nounwind uwtable
define noalias noundef ptr @Pas_ManPhase(ptr noundef %0, ptr noundef readonly captures(none) %1, ptr noundef readonly captures(none) %2, ptr noundef readonly captures(none) %3, ptr noundef writeonly captures(none) %4) local_unnamed_addr #1 {
  %6 = getelementptr i8, ptr %2, i64 4
  %.val20 = load i32, ptr %6, align 4
  %7 = ashr i32 %.val20, 5
  %8 = and i32 %.val20, 31
  %9 = icmp ne i32 %8, 0
  %10 = zext i1 %9 to i32
  %11 = add nsw i32 %7, %10
  %12 = tail call noalias dereferenceable_or_null(16) ptr @malloc(i64 noundef 16) #14
  %13 = shl nsw i32 %11, 5
  store i32 %13, ptr %12, align 8
  %.not.i.i = icmp eq i32 %11, 0
  br i1 %.not.i.i, label %Vec_BitStart.exit, label %14

14:                                               ; preds = %5
  %15 = sext i32 %11 to i64
  %16 = shl nsw i64 %15, 2
  %17 = tail call noalias ptr @malloc(i64 noundef %16) #14
  br label %Vec_BitStart.exit

Vec_BitStart.exit:                                ; preds = %5, %14
  %.pre-phi8.i = phi i64 [ %16, %14 ], [ 0, %5 ]
  %18 = phi ptr [ %17, %14 ], [ null, %5 ]
  %19 = getelementptr inbounds nuw i8, ptr %12, i64 4
  %20 = getelementptr inbounds nuw i8, ptr %12, i64 8
  store ptr %18, ptr %20, align 8
  store i32 %13, ptr %19, align 4
  tail call void @llvm.memset.p0.i64(ptr align 4 %18, i8 0, i64 %.pre-phi8.i, i1 false)
  %21 = getelementptr i8, ptr %1, i64 4
  %.val19 = load i32, ptr %21, align 4
  %22 = sdiv i32 %.val19, 6
  %23 = ashr i32 %22, 5
  %24 = and i32 %22, 31
  %25 = icmp ne i32 %24, 0
  %26 = zext i1 %25 to i32
  %27 = add nsw i32 %23, %26
  %28 = tail call noalias dereferenceable_or_null(16) ptr @malloc(i64 noundef 16) #14
  %29 = shl nsw i32 %27, 5
  store i32 %29, ptr %28, align 8
  %.not.i.i21 = icmp eq i32 %27, 0
  br i1 %.not.i.i21, label %Vec_BitStart.exit23, label %30

30:                                               ; preds = %Vec_BitStart.exit
  %31 = sext i32 %27 to i64
  %32 = shl nsw i64 %31, 2
  %33 = tail call noalias ptr @malloc(i64 noundef %32) #14
  br label %Vec_BitStart.exit23

Vec_BitStart.exit23:                              ; preds = %Vec_BitStart.exit, %30
  %.pre-phi8.i22 = phi i64 [ %32, %30 ], [ 0, %Vec_BitStart.exit ]
  %34 = phi ptr [ %33, %30 ], [ null, %Vec_BitStart.exit ]
  %35 = getelementptr inbounds nuw i8, ptr %28, i64 4
  %36 = getelementptr inbounds nuw i8, ptr %28, i64 8
  store ptr %34, ptr %36, align 8
  store i32 %29, ptr %35, align 4
  tail call void @llvm.memset.p0.i64(ptr align 4 %34, i8 0, i64 %.pre-phi8.i22, i1 false)
  tail call void @Gia_ManIncrementTravId(ptr noundef %0) #13
  %37 = getelementptr i8, ptr %3, i64 4
  %.val1824 = load i32, ptr %37, align 4
  %38 = icmp sgt i32 %.val1824, 0
  br i1 %38, label %.lr.ph, label %.critedge

.lr.ph:                                           ; preds = %Vec_BitStart.exit23
  %39 = getelementptr i8, ptr %3, i64 8
  %40 = getelementptr i8, ptr %0, i64 32
  br label %41

41:                                               ; preds = %.lr.ph, %41
  %indvars.iv = phi i64 [ 0, %.lr.ph ], [ %indvars.iv.next, %41 ]
  %.val = load ptr, ptr %39, align 8
  %42 = getelementptr inbounds nuw i32, ptr %.val, i64 %indvars.iv
  %43 = load i32, ptr %42, align 4
  %.val17 = load ptr, ptr %40, align 8
  %44 = sext i32 %43 to i64
  %45 = getelementptr inbounds %struct.Gia_Obj_t_, ptr %.val17, i64 %44
  tail call void @Pas_ManPhase_rec(ptr noundef %0, ptr noundef %1, ptr noundef %2, ptr noundef %45, i32 noundef 1, ptr noundef nonnull %12, ptr noundef nonnull %28)
  %indvars.iv.next = add nuw nsw i64 %indvars.iv, 1
  %.val18 = load i32, ptr %37, align 4
  %46 = sext i32 %.val18 to i64
  %47 = icmp slt i64 %indvars.iv.next, %46
  br i1 %47, label %41, label %.critedge, !llvm.loop !8

.critedge:                                        ; preds = %41, %Vec_BitStart.exit23
  store ptr %28, ptr %4, align 8
  ret ptr %12
}